target datalayout = "e-m:e-p270:32:32-p271:32:32-p272:64:64-i64:64-i128:128-f80:128-n8:16:32:64-S128"
target triple = "x86_64-pc-linux-gnu"

%"class.cv::Vec" = type { %"class.cv::Matx" }
%"class.cv::Matx" = type { [3 x double] }
%"struct.cv::Matx_SubOp" = type { i8 }
%"class.cv::Matx.1" = type { [4 x double] }

; Function Attrs: inlinehint mustprogress nounwind uwtable
define linkonce_odr hidden void @_ZN2cv4MatxIdLi3ELi1EEC2ERKS1_S3_NS_10Matx_SubOpE(ptr noundef nonnull align 8 dereferenceable(24) %0, ptr noundef nonnull align 8 dereferenceable(24) %1, ptr noundef nonnull align 8 dereferenceable(24) %2, ptr noundef %3) unnamed_addr #8 comdat align 2 {
  %5 = alloca ptr, align 8
  %6 = alloca ptr, align 8
  %7 = alloca ptr, align 8
  %8 = alloca ptr, align 8
  %9 = alloca i32, align 4
  store ptr %0, ptr %5, align 8, !tbaa !44
  store ptr %1, ptr %6, align 8, !tbaa !44
  store ptr %2, ptr %7, align 8, !tbaa !44
  store ptr %3, ptr %8, align 8, !tbaa !287
  %10 = load ptr, ptr %5, align 8
  call void @llvm.lifetime.start.p0(i64 4, ptr %9) #3
  store i32 0, ptr %9, align 4, !tbaa !46
  br label %11

11:                                               ; preds = %34, %4
  %12 = load i32, ptr %9, align 4, !tbaa !46
  %13 = icmp slt i32 %12, 3
  br i1 %13, label %15, label %14

14:                                               ; preds = %11
  call void @llvm.lifetime.end.p0(i64 4, ptr %9) #3
  br label %37

15:                                               ; preds = %11
  %16 = load ptr, ptr %6, align 8, !tbaa !44
  %17 = getelementptr inbounds nuw %"class.cv::Matx", ptr %16, i32 0, i32 0
  %18 = load i32, ptr %9, align 4, !tbaa !46
  %19 = sext i32 %18 to i64
  %20 = getelementptr inbounds [3 x double], ptr %17, i64 0, i64 %19
  %21 = load double, ptr %20, align 8, !tbaa !33
  %22 = load ptr, ptr %7, align 8, !tbaa !44
  %23 = getelementptr inbounds nuw %"class.cv::Matx", ptr %22, i32 0, i32 0
  %24 = load i32, ptr %9, align 4, !tbaa !46
  %25 = sext i32 %24 to i64
  %26 = getelementptr inbounds [3 x double], ptr %23, i64 0, i64 %25
  %27 = load double, ptr %26, align 8, !tbaa !33
  %28 = fsub double %21, %27
  %29 = call noundef double @_ZN2cvL13saturate_castIdEET_d(double noundef %28)
  %30 = getelementptr inbounds nuw %"class.cv::Matx", ptr %10, i32 0, i32 0
  %31 = load i32, ptr %9, align 4, !tbaa !46
  %32 = sext i32 %31 to i64
  %33 = getelementptr inbounds [3 x double], ptr %30, i64 0, i64 %32
  store double %29, ptr %33, align 8, !tbaa !33
  br label %34

34:                                               ; preds = %15
  %35 = load i32, ptr %9, align 4, !tbaa !46
  %36 = add nsw i32 %35, 1
  store i32 %36, ptr %9, align 4, !tbaa !46
  br label %11, !llvm.loop !289

37:                                               ; preds = %14
  ret void
}

; Function Attrs: mustprogress nounwind uwtable
define linkonce_odr hidden void @_ZN2cv10Matx_SubOpC2ERKS0_(ptr noundef nonnull align 1 dereferenceable(1) %0, ptr noundef nonnull align 1 dereferenceable(1) %1) unnamed_addr #5 comdat align 2 {
  %3 = alloca ptr, align 8
  %4 = alloca ptr, align 8
  store ptr %0, ptr %3, align 8, !tbaa !287
  store ptr %1, ptr %4, align 8, !tbaa !287
  ret void
}

; Function Attrs: inlinehint mustprogress nounwind uwtable
define linkonce_odr hidden noundef double @_ZNK2cv4MatxIdLi3ELi1EE3dotERKS1_(ptr noundef nonnull align 8 dereferenceable(24) %0, ptr noundef nonnull align 8 dereferenceable(24) %1) #8 comdat align 2 {
  %3 = alloca ptr, align 8
  %4 = alloca ptr, align 8
  %5 = alloca double, align 8
  %6 = alloca i32, align 4
  store ptr %0, ptr %3, align 8, !tbaa !44
  store ptr %1, ptr %4, align 8, !tbaa !44
  %7 = load ptr, ptr %3, align 8
  call void @llvm.lifetime.start.p0(i64 8, ptr %5) #3
  store double 0.000000e+00, ptr %5, align 8, !tbaa !33
  call void @llvm.lifetime.start.p0(i64 4, ptr %6) #3
  store i32 0, ptr %6, align 4, !tbaa !46
  br label %8

8:                                                ; preds = %26, %2
  %9 = load i32, ptr %6, align 4, !tbaa !46
  %10 = icmp slt i32 %9, 3
  br i1 %10, label %12, label %11

11:                                               ; preds = %8
  call void @llvm.lifetime.end.p0(i64 4, ptr %6) #3
  br label %29

12:                                               ; preds = %8
  %13 = getelementptr inbounds nuw %"class.cv::Matx", ptr %7, i32 0, i32 0
  %14 = load i32, ptr %6, align 4, !tbaa !46
  %15 = sext i32 %14 to i64
  %16 = getelementptr inbounds [3 x double], ptr %13, i64 0, i64 %15
  %17 = load double, ptr %16, align 8, !tbaa !33
  %18 = load ptr, ptr %4, align 8, !tbaa !44
  %19 = getelementptr inbounds nuw %"class.cv::Matx", ptr %18, i32 0, i32 0
  %20 = load i32, ptr %6, align 4, !tbaa !46
  %21 = sext i32 %20 to i64
  %22 = getelementptr inbounds [3 x double], ptr %19, i64 0, i64 %21
  %23 = load double, ptr %22, align 8, !tbaa !33
  %24 = load double, ptr %5, align 8, !tbaa !33
  %25 = call double @llvm.fmuladd.f64(double %17, double %23, double %24)
  store double %25, ptr %5, align 8, !tbaa !33
  br label %26

26:                                               ; preds = %12
  %27 = load i32, ptr %6, align 4, !tbaa !46
  %28 = add nsw i32 %27, 1
  store i32 %28, ptr %6, align 4, !tbaa !46
  br label %8, !llvm.loop !166

29:                                               ; preds = %11
  %30 = load double, ptr %5, align 8, !tbaa !33
  call void @llvm.lifetime.end.p0(i64 8, ptr %5) #3
  ret double %30
}

; Function Attrs: inlinehint mustprogress nounwind uwtable
define internal noundef double @_ZN2cvL13saturate_castIdEET_d(double noundef %0) #8 {
  %2 = alloca double, align 8
  store double %0, ptr %2, align 8, !tbaa !33
  %3 = load double, ptr %2, align 8, !tbaa !33
  ret double %3
}

; Function Attrs: inlinehint mustprogress nounwind uwtable
define linkonce_odr hidden noundef nonnull align 8 dereferenceable(8) ptr @_ZN2cv3VecIdLi3EEixEi(ptr noundef nonnull align 8 dereferenceable(24) %0, i32 noundef %1) #8 comdat align 2 {
  %3 = alloca ptr, align 8
  %4 = alloca i32, align 4
  store ptr %0, ptr %3, align 8, !tbaa !40
  store i32 %1, ptr %4, align 4, !tbaa !46
  %5 = load ptr, ptr %3, align 8
  %6 = getelementptr inbounds nuw %"class.cv::Matx", ptr %5, i32 0, i32 0
  %7 = load i32, ptr %4, align 4, !tbaa !46
  %8 = sext i32 %7 to i64
  %9 = getelementptr inbounds [3 x double], ptr %6, i64 0, i64 %8
  ret ptr %9
}

; Function Attrs: inlinehint mustprogress nounwind uwtable
define internal noundef double @_ZN2cvL9normL2SqrIddEET0_PKT_i(ptr noundef %0, i32 noundef %1) #8 {
  %3 = alloca ptr, align 8
  %4 = alloca i32, align 4
  %5 = alloca double, align 8
  %6 = alloca i32, align 4
  %7 = alloca double, align 8
  store ptr %0, ptr %3, align 8, !tbaa !274
  store i32 %1, ptr %4, align 4, !tbaa !46
  call void @llvm.lifetime.start.p0(i64 8, ptr %5) #3
  store double 0.000000e+00, ptr %5, align 8, !tbaa !33
  call void @llvm.lifetime.start.p0(i64 4, ptr %6) #3
  store i32 0, ptr %6, align 4, !tbaa !46
  br label %8

8:                                                ; preds = %22, %2
  %9 = load i32, ptr %6, align 4, !tbaa !46
  %10 = load i32, ptr %4, align 4, !tbaa !46
  %11 = icmp slt i32 %9, %10
  br i1 %11, label %12, label %25

12:                                               ; preds = %8
  call void @llvm.lifetime.start.p0(i64 8, ptr %7) #3
  %13 = load ptr, ptr %3, align 8, !tbaa !274
  %14 = load i32, ptr %6, align 4, !tbaa !46
  %15 = sext i32 %14 to i64
  %16 = getelementptr inbounds double, ptr %13, i64 %15
  %17 = load double, ptr %16, align 8, !tbaa !33
  store double %17, ptr %7, align 8, !tbaa !33
  %18 = load double, ptr %7, align 8, !tbaa !33
  %19 = load double, ptr %7, align 8, !tbaa !33
  %20 = load double, ptr %5, align 8, !tbaa !33
  %21 = call double @llvm.fmuladd.f64(double %18, double %19, double %20)
  store double %21, ptr %5, align 8, !tbaa !33
  call void @llvm.lifetime.end.p0(i64 8, ptr %7) #3
  br label %22

22:                                               ; preds = %12
  %23 = load i32, ptr %6, align 4, !tbaa !46
  %24 = add nsw i32 %23, 1
  store i32 %24, ptr %6, align 4, !tbaa !46
  br label %8, !llvm.loop !276

25:                                               ; preds = %8
  %26 = load double, ptr %5, align 8, !tbaa !33
  call void @llvm.lifetime.end.p0(i64 4, ptr %6) #3
  call void @llvm.lifetime.end.p0(i64 8, ptr %5) #3
  ret double %26
}

; Function Attrs: inlinehint mustprogress uwtable
define linkonce_odr hidden void @_ZN2cv3VecIdLi3EEC2ERKNS_4MatxIdLi3ELi1EEES5_NS_10Matx_SubOpE(ptr noundef nonnull align 8 dereferenceable(24) %0, ptr noundef nonnull align 8 dereferenceable(24) %1, ptr noundef nonnull align 8 dereferenceable(24) %2, ptr noundef %3) unnamed_addr #7 comdat align 2 {
  %5 = alloca ptr, align 8
  %6 = alloca ptr, align 8
  %7 = alloca ptr, align 8
  %8 = alloca ptr, align 8
  %9 = alloca %"struct.cv::Matx_SubOp", align 1
  store ptr %0, ptr %5, align 8, !tbaa !40
  store ptr %1, ptr %6, align 8, !tbaa !44
  store ptr %2, ptr %7, align 8, !tbaa !44
  store ptr %3, ptr %8, align 8, !tbaa !287
  %10 = load ptr, ptr %5, align 8
  %11 = load ptr, ptr %6, align 8, !tbaa !44
  %12 = load ptr, ptr %7, align 8, !tbaa !44
  call void @_ZN2cv10Matx_SubOpC2ERKS0_(ptr noundef nonnull align 1 dereferenceable(1) %9, ptr noundef nonnull align 1 dereferenceable(1) %3)
  call void @_ZN2cv4MatxIdLi3ELi1EEC2ERKS1_S3_NS_10Matx_SubOpE(ptr noundef nonnull align 8 dereferenceable(24) %10, ptr noundef nonnull align 8 dereferenceable(24) %11, ptr noundef nonnull align 8 dereferenceable(24) %12, ptr noundef %9)
  ret void
}

; Function Attrs: mustprogress nounwind uwtable
define linkonce_odr hidden void @_ZN2cv10Matx_SubOpC2Ev(ptr noundef nonnull align 1 dereferenceable(1) %0) unnamed_addr #5 comdat align 2 {
  %2 = alloca ptr, align 8
  store ptr %0, ptr %2, align 8, !tbaa !287
  ret void
}

; Function Attrs: inlinehint mustprogress uwtable
define internal noundef double @_ZN2cv12ppf_match_3dL17TAngle3NormalizedERKNS_3VecIdLi3EEES4_(ptr noundef nonnull align 8 dereferenceable(24) %0, ptr noundef nonnull align 8 dereferenceable(24) %1) #7 {
  %3 = alloca ptr, align 8
  %4 = alloca ptr, align 8
  store ptr %0, ptr %3, align 8, !tbaa !40
  store ptr %1, ptr %4, align 8, !tbaa !40
  %5 = load ptr, ptr %3, align 8, !tbaa !40
  %6 = load ptr, ptr %4, align 8, !tbaa !40
  %7 = call noundef double @_ZNK2cv4MatxIdLi3ELi1EE3dotERKS1_(ptr noundef nonnull align 8 dereferenceable(24) %5, ptr noundef nonnull align 8 dereferenceable(24) %6)
  %8 = call double @acos(double noundef %7) #3, !tbaa !46
  ret double %8
}

; Function Attrs: inlinehint mustprogress uwtable
define internal noundef nonnull align 8 dereferenceable(24) ptr @_ZN2cvmLIdLi3EEERNS_3VecIT_XT0_EEES4_d(ptr noundef nonnull align 8 dereferenceable(24) %0, double noundef %1) #7 {
  %3 = alloca ptr, align 8
  %4 = alloca double, align 8
  %5 = alloca i32, align 4
  store ptr %0, ptr %3, align 8, !tbaa !40
  store double %1, ptr %4, align 8, !tbaa !33
  call void @llvm.lifetime.start.p0(i64 4, ptr %5) #3
  store i32 0, ptr %5, align 4, !tbaa !46
  br label %6

6:                                                ; preds = %21, %2
  %7 = load i32, ptr %5, align 4, !tbaa !46
  %8 = icmp slt i32 %7, 3
  br i1 %8, label %10, label %9

9:                                                ; preds = %6
  call void @llvm.lifetime.end.p0(i64 4, ptr %5) #3
  br label %24

10:                                               ; preds = %6
  %11 = load ptr, ptr %3, align 8, !tbaa !40
  %12 = load i32, ptr %5, align 4, !tbaa !46
  %13 = call noundef nonnull align 8 dereferenceable(8) ptr @_ZN2cv3VecIdLi3EEixEi(ptr noundef nonnull align 8 dereferenceable(24) %11, i32 noundef %12)
  %14 = load double, ptr %13, align 8, !tbaa !33
  %15 = load double, ptr %4, align 8, !tbaa !33
  %16 = fmul double %14, %15
  %17 = call noundef double @_ZN2cvL13saturate_castIdEET_d(double noundef %16)
  %18 = load ptr, ptr %3, align 8, !tbaa !40
  %19 = load i32, ptr %5, align 4, !tbaa !46
  %20 = call noundef nonnull align 8 dereferenceable(8) ptr @_ZN2cv3VecIdLi3EEixEi(ptr noundef nonnull align 8 dereferenceable(24) %18, i32 noundef %19)
  store double %17, ptr %20, align 8, !tbaa !33
  br label %21

21:                                               ; preds = %10
  %22 = load i32, ptr %5, align 4, !tbaa !46
  %23 = add nsw i32 %22, 1
  store i32 %23, ptr %5, align 4, !tbaa !46
  br label %6, !llvm.loop !47

24:                                               ; preds = %9
  %25 = load ptr, ptr %3, align 8, !tbaa !40
  ret ptr %25
}

; Function Attrs: inlinehint mustprogress nounwind uwtable
define linkonce_odr hidden noundef nonnull align 8 dereferenceable(8) ptr @_ZN2cv3VecIdLi4EEixEi(ptr noundef nonnull align 8 dereferenceable(32) %0, i32 noundef %1) #8 comdat align 2 {
  %3 = alloca ptr, align 8
  %4 = alloca i32, align 4
  store ptr %0, ptr %3, align 8, !tbaa !42
  store i32 %1, ptr %4, align 4, !tbaa !46
  %5 = load ptr, ptr %3, align 8
  %6 = getelementptr inbounds nuw %"class.cv::Matx.1", ptr %5, i32 0, i32 0
  %7 = load i32, ptr %4, align 4, !tbaa !46
  %8 = sext i32 %7 to i64
  %9 = getelementptr inbounds [4 x double], ptr %6, i64 0, i64 %8
  ret ptr %9
}

; Function Attrs: inlinehint mustprogress uwtable
define internal noundef double @_ZN2cvL4normIdLi3ELi1EEEdRKNS_4MatxIT_XT0_EXT1_EEE(ptr noundef nonnull align 8 dereferenceable(24) %0) #7 {
  %2 = alloca ptr, align 8
  store ptr %0, ptr %2, align 8, !tbaa !44
  %3 = load ptr, ptr %2, align 8, !tbaa !44
  %4 = getelementptr inbounds nuw %"class.cv::Matx", ptr %3, i32 0, i32 0
  %5 = getelementptr inbounds [3 x double], ptr %4, i64 0, i64 0
  %6 = call noundef double @_ZN2cvL9normL2SqrIddEET0_PKT_i(ptr noundef %5, i32 noundef 3)
  %7 = call double @sqrt(double noundef %6) #3, !tbaa !46
  ret double %7
}

; Function Attrs: inlinehint mustprogress uwtable
define internal void @_ZN2cvmiIdLi3EEENS_3VecIT_XT0_EEERKS3_S5_(ptr dead_on_unwind noalias writable sret(%"class.cv::Vec") align 8 %0, ptr noundef nonnull align 8 dereferenceable(24) %1, ptr noundef nonnull align 8 dereferenceable(24) %2) #7 {
  %4 = alloca ptr, align 8
  %5 = alloca ptr, align 8
  %6 = alloca ptr, align 8
  %7 = alloca %"struct.cv::Matx_SubOp", align 1
  store ptr %0, ptr %4, align 8
  store ptr %1, ptr %5, align 8, !tbaa !40
  store ptr %2, ptr %6, align 8, !tbaa !40
  %8 = load ptr, ptr %5, align 8, !tbaa !40
  %9 = load ptr, ptr %6, align 8, !tbaa !40
  call void @_ZN2cv10Matx_SubOpC2Ev(ptr noundef nonnull align 1 dereferenceable(1) %7)
  call void @_ZN2cv3VecIdLi3EEC2ERKNS_4MatxIdLi3ELi1EEES5_NS_10Matx_SubOpE(ptr noundef nonnull align 8 dereferenceable(24) %0, ptr noundef nonnull align 8 dereferenceable(24) %8, ptr noundef nonnull align 8 dereferenceable(24) %9, ptr noundef %7)
  ret void
}

; Function Attrs: mustprogress uwtable
define void @_ZN2cv12ppf_match_3d13PPF3DDetector18computePPFFeaturesERKNS_3VecIdLi3EEES5_S5_S5_RNS2_IdLi4EEE(ptr noundef nonnull align 8 dereferenceable(297) %0, ptr noundef nonnull align 8 dereferenceable(24) %1, ptr noundef nonnull align 8 dereferenceable(24) %2, ptr noundef nonnull align 8 dereferenceable(24) %3, ptr noundef nonnull align 8 dereferenceable(24) %4, ptr noundef nonnull align 8 dereferenceable(32) %5) #4 align 2 {
  %7 = alloca ptr, align 8
  %8 = alloca ptr, align 8
  %9 = alloca ptr, align 8
  %10 = alloca ptr, align 8
  %11 = alloca ptr, align 8
  %12 = alloca ptr, align 8
  %13 = alloca %"class.cv::Vec", align 8
  %14 = alloca i32, align 4
  store ptr %0, ptr %7, align 8, !tbaa !3
  store ptr %1, ptr %8, align 8, !tbaa !40
  store ptr %2, ptr %9, align 8, !tbaa !40
  store ptr %3, ptr %10, align 8, !tbaa !40
  store ptr %4, ptr %11, align 8, !tbaa !40
  store ptr %5, ptr %12, align 8, !tbaa !42
  call void @llvm.lifetime.start.p0(i64 24, ptr %13) #3
  %15 = load ptr, ptr %10, align 8, !tbaa !40
  %16 = load ptr, ptr %8, align 8, !tbaa !40
  call void @_ZN2cvmiIdLi3EEENS_3VecIT_XT0_EEERKS3_S5_(ptr dead_on_unwind writable sret(%"class.cv::Vec") align 8 %13, ptr noundef nonnull align 8 dereferenceable(24) %15, ptr noundef nonnull align 8 dereferenceable(24) %16)
  %17 = call noundef double @_ZN2cvL4normIdLi3ELi1EEEdRKNS_4MatxIT_XT0_EXT1_EEE(ptr noundef nonnull align 8 dereferenceable(24) %13)
  %18 = load ptr, ptr %12, align 8, !tbaa !42
  %19 = call noundef nonnull align 8 dereferenceable(8) ptr @_ZN2cv3VecIdLi4EEixEi(ptr noundef nonnull align 8 dereferenceable(32) %18, i32 noundef 3)
  store double %17, ptr %19, align 8, !tbaa !33
  %20 = load ptr, ptr %12, align 8, !tbaa !42
  %21 = call noundef nonnull align 8 dereferenceable(8) ptr @_ZN2cv3VecIdLi4EEixEi(ptr noundef nonnull align 8 dereferenceable(32) %20, i32 noundef 3)
  %22 = load double, ptr %21, align 8, !tbaa !33
  %23 = fcmp ole double %22, 0x3E80000000000000
  br i1 %23, label %24, label %25

24:                                               ; preds = %6
  store i32 1, ptr %14, align 4
  br label %44

25:                                               ; preds = %6
  %26 = load ptr, ptr %12, align 8, !tbaa !42
  %27 = call noundef nonnull align 8 dereferenceable(8) ptr @_ZN2cv3VecIdLi4EEixEi(ptr noundef nonnull align 8 dereferenceable(32) %26, i32 noundef 3)
  %28 = load double, ptr %27, align 8, !tbaa !33
  %29 = fdiv double 1.000000e+00, %28
  %30 = call noundef nonnull align 8 dereferenceable(24) ptr @_ZN2cvmLIdLi3EEERNS_3VecIT_XT0_EEES4_d(ptr noundef nonnull align 8 dereferenceable(24) %13, double noundef %29)
  %31 = load ptr, ptr %9, align 8, !tbaa !40
  %32 = call noundef double @_ZN2cv12ppf_match_3dL17TAngle3NormalizedERKNS_3VecIdLi3EEES4_(ptr noundef nonnull align 8 dereferenceable(24) %31, ptr noundef nonnull align 8 dereferenceable(24) %13)
  %33 = load ptr, ptr %12, align 8, !tbaa !42
  %34 = call noundef nonnull align 8 dereferenceable(8) ptr @_ZN2cv3VecIdLi4EEixEi(ptr noundef nonnull align 8 dereferenceable(32) %33, i32 noundef 0)
  store double %32, ptr %34, align 8, !tbaa !33
  %35 = load ptr, ptr %11, align 8, !tbaa !40
  %36 = call noundef double @_ZN2cv12ppf_match_3dL17TAngle3NormalizedERKNS_3VecIdLi3EEES4_(ptr noundef nonnull align 8 dereferenceable(24) %35, ptr noundef nonnull align 8 dereferenceable(24) %13)
  %37 = load ptr, ptr %12, align 8, !tbaa !42
  %38 = call noundef nonnull align 8 dereferenceable(8) ptr @_ZN2cv3VecIdLi4EEixEi(ptr noundef nonnull align 8 dereferenceable(32) %37, i32 noundef 1)
  store double %36, ptr %38, align 8, !tbaa !33
  %39 = load ptr, ptr %9, align 8, !tbaa !40
  %40 = load ptr, ptr %11, align 8, !tbaa !40
  %41 = call noundef double @_ZN2cv12ppf_match_3dL17TAngle3NormalizedERKNS_3VecIdLi3EEES4_(ptr noundef nonnull align 8 dereferenceable(24) %39, ptr noundef nonnull align 8 dereferenceable(24) %40)
  %42 = load ptr, ptr %12, align 8, !tbaa !42
  %43 = call noundef nonnull align 8 dereferenceable(8) ptr @_ZN2cv3VecIdLi4EEixEi(ptr noundef nonnull align 8 dereferenceable(32) %42, i32 noundef 2)
  store double %41, ptr %43, align 8, !tbaa !33
  store i32 0, ptr %14, align 4
  br label %44

44:                                               ; preds = %25, %24
  call void @llvm.lifetime.end.p0(i64 24, ptr %13) #3
  %45 = load i32, ptr %14, align 4
  switch i32 %45, label %47 [
    i32 0, label %46
    i32 1, label %46
  ]

46:                                               ; preds = %44, %44
  ret void

47:                                               ; preds = %44
  unreachable
}