; Function Attrs: mustprogress nofree nounwind memory(write, argmem: readwrite, inaccessiblemem: readwrite) uwtable
define void @_ZN2cv12ppf_match_3d13PPF3DDetector18computePPFFeaturesERKNS_3VecIdLi3EEES5_S5_S5_RNS2_IdLi4EEE(ptr noundef nonnull readnone align 8 captures(none) dereferenceable(297) %0, ptr noundef nonnull readonly align 8 captures(none) dereferenceable(24) %1, ptr noundef nonnull readonly align 8 captures(none) dereferenceable(24) %2, ptr noundef nonnull readonly align 8 captures(none) dereferenceable(24) %3, ptr noundef nonnull readonly align 8 captures(none) dereferenceable(24) %4, ptr noundef nonnull writeonly align 8 captures(none) dereferenceable(32) %5) local_unnamed_addr #5 align 2 {
  %7 = alloca %"class.cv::Vec", align 8
  call void @llvm.lifetime.start.p0(i64 24, ptr nonnull %7) #27
  tail call void @llvm.experimental.noalias.scope.decl(metadata !32)
  br label %8

8:                                                ; preds = %8, %6
  %indvars.iv.i.i.i = phi i64 [ 0, %6 ], [ %indvars.iv.next.i.i.i, %8 ]
  %9 = getelementptr inbounds nuw [3 x double], ptr %3, i64 0, i64 %indvars.iv.i.i.i
  %10 = load double, ptr %9, align 8, !tbaa !35, !noalias !32
  %11 = getelementptr inbounds nuw [3 x double], ptr %1, i64 0, i64 %indvars.iv.i.i.i
  %12 = load double, ptr %11, align 8, !tbaa !35, !noalias !32
  %13 = fsub double %10, %12
  %14 = getelementptr inbounds nuw [3 x double], ptr %7, i64 0, i64 %indvars.iv.i.i.i
  store double %13, ptr %14, align 8, !tbaa !35, !alias.scope !32
  %indvars.iv.next.i.i.i = add nuw nsw i64 %indvars.iv.i.i.i, 1
  %exitcond.not.i.i.i = icmp eq i64 %indvars.iv.next.i.i.i, 3
  br i1 %exitcond.not.i.i.i, label %_ZN2cvmiIdLi3EEENS_3VecIT_XT0_EEERKS3_S5_.exit, label %8, !llvm.loop !36

_ZN2cvmiIdLi3EEENS_3VecIT_XT0_EEERKS3_S5_.exit:   ; preds = %8, %_ZN2cvmiIdLi3EEENS_3VecIT_XT0_EEERKS3_S5_.exit
  %indvars.iv.i.i = phi i64 [ %indvars.iv.next.i.i, %_ZN2cvmiIdLi3EEENS_3VecIT_XT0_EEERKS3_S5_.exit ], [ 0, %8 ]
  %.010.i.i = phi double [ %17, %_ZN2cvmiIdLi3EEENS_3VecIT_XT0_EEERKS3_S5_.exit ], [ 0.000000e+00, %8 ]
  %15 = getelementptr inbounds nuw double, ptr %7, i64 %indvars.iv.i.i
  %16 = load double, ptr %15, align 8, !tbaa !35
  %17 = tail call double @llvm.fmuladd.f64(double %16, double %16, double %.010.i.i)
  %indvars.iv.next.i.i = add nuw nsw i64 %indvars.iv.i.i, 1
  %exitcond.not.i.i = icmp eq i64 %indvars.iv.next.i.i, 3
  br i1 %exitcond.not.i.i, label %_ZN2cvL4normIdLi3ELi1EEEdRKNS_4MatxIT_XT0_EXT1_EEE.exit, label %_ZN2cvmiIdLi3EEENS_3VecIT_XT0_EEERKS3_S5_.exit, !llvm.loop !38

_ZN2cvL4normIdLi3ELi1EEEdRKNS_4MatxIT_XT0_EXT1_EEE.exit: ; preds = %_ZN2cvmiIdLi3EEENS_3VecIT_XT0_EEERKS3_S5_.exit
  %18 = tail call noundef double @sqrt(double noundef %17) #27, !tbaa !39
  %19 = getelementptr inbounds nuw i8, ptr %5, i64 24
  store double %18, ptr %19, align 8, !tbaa !35
  %20 = fcmp ugt double %18, 0x3E80000000000000
  br i1 %20, label %21, label %49

21:                                               ; preds = %_ZN2cvL4normIdLi3ELi1EEEdRKNS_4MatxIT_XT0_EXT1_EEE.exit
  %22 = fdiv double 1.000000e+00, %18
  br label %23

23:                                               ; preds = %23, %21
  %indvars.iv.i = phi i64 [ 0, %21 ], [ %indvars.iv.next.i, %23 ]
  %24 = getelementptr inbounds nuw [3 x double], ptr %7, i64 0, i64 %indvars.iv.i
  %25 = load double, ptr %24, align 8, !tbaa !35
  %26 = fmul double %22, %25
  store double %26, ptr %24, align 8, !tbaa !35
  %indvars.iv.next.i = add nuw nsw i64 %indvars.iv.i, 1
  %exitcond.not.i = icmp eq i64 %indvars.iv.next.i, 3
  br i1 %exitcond.not.i, label %_ZN2cvmLIdLi3EEERNS_3VecIT_XT0_EEES4_d.exit, label %23, !llvm.loop !40

_ZN2cvmLIdLi3EEERNS_3VecIT_XT0_EEES4_d.exit:      ; preds = %23, %_ZN2cvmLIdLi3EEERNS_3VecIT_XT0_EEES4_d.exit
  %indvars.iv.i.i12 = phi i64 [ %indvars.iv.next.i.i13, %_ZN2cvmLIdLi3EEERNS_3VecIT_XT0_EEES4_d.exit ], [ 0, %23 ]
  %.078.i.i = phi double [ %31, %_ZN2cvmLIdLi3EEERNS_3VecIT_XT0_EEES4_d.exit ], [ 0.000000e+00, %23 ]
  %27 = getelementptr inbounds nuw [3 x double], ptr %2, i64 0, i64 %indvars.iv.i.i12
  %28 = load double, ptr %27, align 8, !tbaa !35
  %29 = getelementptr inbounds nuw [3 x double], ptr %7, i64 0, i64 %indvars.iv.i.i12
  %30 = load double, ptr %29, align 8, !tbaa !35
  %31 = tail call double @llvm.fmuladd.f64(double %28, double %30, double %.078.i.i)
  %indvars.iv.next.i.i13 = add nuw nsw i64 %indvars.iv.i.i12, 1
  %exitcond.not.i.i14 = icmp eq i64 %indvars.iv.next.i.i13, 3
  br i1 %exitcond.not.i.i14, label %_ZN2cv12ppf_match_3dL17TAngle3NormalizedERKNS_3VecIdLi3EEES4_.exit, label %_ZN2cvmLIdLi3EEERNS_3VecIT_XT0_EEES4_d.exit, !llvm.loop !41

_ZN2cv12ppf_match_3dL17TAngle3NormalizedERKNS_3VecIdLi3EEES4_.exit: ; preds = %_ZN2cvmLIdLi3EEERNS_3VecIT_XT0_EEES4_d.exit
  %32 = tail call noundef double @acos(double noundef %31) #27, !tbaa !39
  store double %32, ptr %5, align 8, !tbaa !35
  br label %33

33:                                               ; preds = %33, %_ZN2cv12ppf_match_3dL17TAngle3NormalizedERKNS_3VecIdLi3EEES4_.exit
  %indvars.iv.i.i15 = phi i64 [ 0, %_ZN2cv12ppf_match_3dL17TAngle3NormalizedERKNS_3VecIdLi3EEES4_.exit ], [ %indvars.iv.next.i.i17, %33 ]
  %.078.i.i16 = phi double [ 0.000000e+00, %_ZN2cv12ppf_match_3dL17TAngle3NormalizedERKNS_3VecIdLi3EEES4_.exit ], [ %38, %33 ]
  %34 = getelementptr inbounds nuw [3 x double], ptr %4, i64 0, i64 %indvars.iv.i.i15
  %35 = load double, ptr %34, align 8, !tbaa !35
  %36 = getelementptr inbounds nuw [3 x double], ptr %7, i64 0, i64 %indvars.iv.i.i15
  %37 = load double, ptr %36, align 8, !tbaa !35
  %38 = tail call double @llvm.fmuladd.f64(double %35, double %37, double %.078.i.i16)
  %indvars.iv.next.i.i17 = add nuw nsw i64 %indvars.iv.i.i15, 1
  %exitcond.not.i.i18 = icmp eq i64 %indvars.iv.next.i.i17, 3
  br i1 %exitcond.not.i.i18, label %_ZN2cv12ppf_match_3dL17TAngle3NormalizedERKNS_3VecIdLi3EEES4_.exit19, label %33, !llvm.loop !41

_ZN2cv12ppf_match_3dL17TAngle3NormalizedERKNS_3VecIdLi3EEES4_.exit19: ; preds = %33
  %39 = tail call noundef double @acos(double noundef %38) #27, !tbaa !39
  %40 = getelementptr inbounds nuw i8, ptr %5, i64 8
  store double %39, ptr %40, align 8, !tbaa !35
  br label %41

41:                                               ; preds = %41, %_ZN2cv12ppf_match_3dL17TAngle3NormalizedERKNS_3VecIdLi3EEES4_.exit19
  %indvars.iv.i.i20 = phi i64 [ 0, %_ZN2cv12ppf_match_3dL17TAngle3NormalizedERKNS_3VecIdLi3EEES4_.exit19 ], [ %indvars.iv.next.i.i22, %41 ]
  %.078.i.i21 = phi double [ 0.000000e+00, %_ZN2cv12ppf_match_3dL17TAngle3NormalizedERKNS_3VecIdLi3EEES4_.exit19 ], [ %46, %41 ]
  %42 = getelementptr inbounds nuw [3 x double], ptr %2, i64 0, i64 %indvars.iv.i.i20
  %43 = load double, ptr %42, align 8, !tbaa !35
  %44 = getelementptr inbounds nuw [3 x double], ptr %4, i64 0, i64 %indvars.iv.i.i20
  %45 = load double, ptr %44, align 8, !tbaa !35
  %46 = tail call double @llvm.fmuladd.f64(double %43, double %45, double %.078.i.i21)
  %indvars.iv.next.i.i22 = add nuw nsw i64 %indvars.iv.i.i20, 1
  %exitcond.not.i.i23 = icmp eq i64 %indvars.iv.next.i.i22, 3
  br i1 %exitcond.not.i.i23, label %_ZN2cv12ppf_match_3dL17TAngle3NormalizedERKNS_3VecIdLi3EEES4_.exit24, label %41, !llvm.loop !41

_ZN2cv12ppf_match_3dL17TAngle3NormalizedERKNS_3VecIdLi3EEES4_.exit24: ; preds = %41
  %47 = tail call noundef double @acos(double noundef %46) #27, !tbaa !39
  %48 = getelementptr inbounds nuw i8, ptr %5, i64 16
  store double %47, ptr %48, align 8, !tbaa !35
  br label %49

49:                                               ; preds = %_ZN2cvL4normIdLi3ELi1EEEdRKNS_4MatxIT_XT0_EXT1_EEE.exit, %_ZN2cv12ppf_match_3dL17TAngle3NormalizedERKNS_3VecIdLi3EEES4_.exit24
  call void @llvm.lifetime.end.p0(i64 24, ptr nonnull %7) #27
  ret void
}